target datalayout = "e-m:e-p270:32:32-p271:32:32-p272:64:64-i64:64-i128:128-f80:128-n8:16:32:64-S128"
target triple = "x86_64-unknown-linux-gnu"

%struct.BdrvChild = type { ptr, ptr, ptr, i32, ptr, i64, i64, i8, i8, %struct.anon, %struct.anon.0 }
%struct.anon = type { ptr, ptr }
%struct.anon.0 = type { ptr, ptr }
%struct.BlockLimits = type { i32, i64, i32, i64, i32, i32, i32, i64, i32, i64, i64, i32, i8, i32, i32, i32, i32, i32, i32, i32 }
%struct.BlockDriverState = type { i32, i8, i8, i8, i8, i8, ptr, ptr, ptr, %struct.anon.1, i8, [4096 x i8], [4096 x i8], [4096 x i8], [16 x i8], ptr, [4096 x i8], %struct.BlockLimits, i32, i32, i32, i32, [32 x i8], %union.anon, %union.anon.2, %union.anon.3, i32, [16 x %struct.anon.4], ptr, %struct.anon.5, ptr, ptr, %struct.anon.6, ptr, ptr, i32, ptr, i64, i64, %struct.QemuMutex, %struct.anon.7, %struct.Stat64, i32, i32, i32, i32, i32, i32, %struct.QemuMutex, %struct.anon.8, %struct.CoQueue, i8, i32, i8, %struct.CoMutex, ptr, ptr }
%struct.anon.1 = type { ptr }
%union.anon = type { %struct.QTailQLink }
%struct.QTailQLink = type { ptr, ptr }
%union.anon.2 = type { %struct.QTailQLink }
%union.anon.3 = type { %struct.QTailQLink }
%struct.anon.4 = type { ptr }
%struct.anon.5 = type { ptr }
%struct.anon.6 = type { ptr }
%struct.anon.7 = type { ptr }
%struct.Stat64 = type { i64 }
%struct.QemuMutex = type { %union.pthread_mutex_t, i8 }
%union.pthread_mutex_t = type { %struct.__pthread_mutex_s }
%struct.__pthread_mutex_s = type { i32, i32, i32, i32, i32, i16, i16, %struct.__pthread_internal_list }
%struct.__pthread_internal_list = type { ptr, ptr }
%struct.anon.8 = type { ptr }
%struct.CoQueue = type { %struct.anon.9 }
%struct.anon.9 = type { ptr, ptr }
%struct.CoMutex = type { i32, ptr, %struct.anon.10, %struct.anon.10, i32, i32, ptr }
%struct.anon.10 = type { ptr }
%struct.GraphLockableMainloop = type {}

@.str = private unnamed_addr constant [22 x i8] c"qemu_in_main_thread()\00", align 1
@.str.1 = private unnamed_addr constant [19 x i8] c"../qemu/block/io.c\00", align 1
@__PRETTY_FUNCTION__.bdrv_drain_assert_idle = private unnamed_addr constant [48 x i8] c"void bdrv_drain_assert_idle(BlockDriverState *)\00", align 1
@__func__.bdrv_drain_assert_idle = private unnamed_addr constant [23 x i8] c"bdrv_drain_assert_idle\00", align 1
@.str.43 = private unnamed_addr constant [34 x i8] c"qatomic_read(&bs->in_flight) == 0\00", align 1

; Function Attrs: nounwind sspstrong uwtable
define internal void @graph_lockable_auto_unlock_mainloop(ptr noundef %x) #0 {
entry:
  %x.addr = alloca ptr, align 8
  store ptr %x, ptr %x.addr, align 8
  call void @bdrv_graph_rdunlock_main_loop()
  ret void
}

; Function Attrs: nounwind sspstrong uwtable
define internal void @glib_autoptr_clear_GraphLockableMainloop(ptr noundef %_ptr) #0 {
entry:
  %_ptr.addr = alloca ptr, align 8
  store ptr %_ptr, ptr %_ptr.addr, align 8
  %0 = load ptr, ptr %_ptr.addr, align 8
  %tobool = icmp ne ptr %0, null
  br i1 %tobool, label %if.then, label %if.end

if.then:                                          ; preds = %entry
  %1 = load ptr, ptr %_ptr.addr, align 8
  call void @graph_lockable_auto_unlock_mainloop(ptr noundef %1)
  br label %if.end

if.end:                                           ; preds = %if.then, %entry
  ret void
}

; Function Attrs: nounwind sspstrong uwtable
define internal void @glib_autoptr_cleanup_GraphLockableMainloop(ptr noundef %_ptr) #0 {
entry:
  %_ptr.addr = alloca ptr, align 8
  store ptr %_ptr, ptr %_ptr.addr, align 8
  %0 = load ptr, ptr %_ptr.addr, align 8
  %1 = load ptr, ptr %0, align 8
  call void @glib_autoptr_clear_GraphLockableMainloop(ptr noundef %1)
  ret void
}

; Function Attrs: nounwind sspstrong uwtable
define internal ptr @graph_lockable_auto_lock_mainloop(ptr noundef %x) #0 {
entry:
  %x.addr = alloca ptr, align 8
  store ptr %x, ptr %x.addr, align 8
  call void @bdrv_graph_rdlock_main_loop()
  %0 = load ptr, ptr %x.addr, align 8
  ret ptr %0
}

; Function Attrs: nounwind sspstrong uwtable
define internal void @bdrv_drain_assert_idle(ptr noundef %bs) #0 {
entry:
  %bs.addr = alloca ptr, align 8
  %child = alloca ptr, align 8
  %next = alloca ptr, align 8
  %graph_lockable_auto23 = alloca ptr, align 8
  %.compoundliteral = alloca %struct.GraphLockableMainloop, align 1
  %tmp = alloca i32, align 4
  %atomic-temp = alloca i32, align 4
  store ptr %bs, ptr %bs.addr, align 8
  br label %do.body

do.body:                                          ; preds = %entry
  %call = call zeroext i1 @qemu_in_main_thread()
  br i1 %call, label %if.then, label %if.else

if.then:                                          ; preds = %do.body
  br label %if.end

if.else:                                          ; preds = %do.body
  call void @__assert_fail(ptr noundef @.str, ptr noundef @.str.1, i32 noundef 462, ptr noundef @__PRETTY_FUNCTION__.bdrv_drain_assert_idle) #10
  unreachable

if.end:                                           ; preds = %if.then
  br label %do.end

do.end:                                           ; preds = %if.end
  %call1 = call ptr @graph_lockable_auto_lock_mainloop(ptr noundef %.compoundliteral)
  store ptr %call1, ptr %graph_lockable_auto23, align 8
  br label %while.cond

while.cond:                                       ; preds = %do.end3, %do.end
  br i1 false, label %while.body, label %while.end

while.body:                                       ; preds = %while.cond
  br label %do.body2

do.body2:                                         ; preds = %while.body
  call void @g_assertion_message_expr(ptr noundef null, ptr noundef @.str.1, i32 noundef 465, ptr noundef @__func__.bdrv_drain_assert_idle, ptr noundef null) #13
  unreachable

do.cond:                                          ; No predecessors!
  br label %do.end3

do.end3:                                          ; preds = %do.cond
  br label %while.cond

while.end:                                        ; preds = %while.cond
  %0 = load ptr, ptr %bs.addr, align 8
  %in_flight = getelementptr inbounds %struct.BlockDriverState, ptr %0, i32 0, i32 43
  %1 = load atomic i32, ptr %in_flight monotonic, align 4
  store i32 %1, ptr %atomic-temp, align 4
  %2 = load i32, ptr %atomic-temp, align 4
  store i32 %2, ptr %tmp, align 4
  %3 = load i32, ptr %tmp, align 4
  %cmp = icmp eq i32 %3, 0
  br i1 %cmp, label %if.then4, label %if.else5

if.then4:                                         ; preds = %while.end
  br label %if.end6

if.else5:                                         ; preds = %while.end
  call void @__assert_fail(ptr noundef @.str.43, ptr noundef @.str.1, i32 noundef 465, ptr noundef @__PRETTY_FUNCTION__.bdrv_drain_assert_idle) #10
  unreachable

if.end6:                                          ; preds = %if.then4
  %4 = load ptr, ptr %bs.addr, align 8
  %children = getelementptr inbounds %struct.BlockDriverState, ptr %4, i32 0, i32 29
  %lh_first = getelementptr inbounds %struct.anon.5, ptr %children, i32 0, i32 0
  %5 = load ptr, ptr %lh_first, align 8
  store ptr %5, ptr %child, align 8
  br label %for.cond

for.cond:                                         ; preds = %for.inc, %if.end6
  %6 = load ptr, ptr %child, align 8
  %tobool = icmp ne ptr %6, null
  br i1 %tobool, label %land.rhs, label %land.end

land.rhs:                                         ; preds = %for.cond
  %7 = load ptr, ptr %child, align 8
  %next7 = getelementptr inbounds %struct.BdrvChild, ptr %7, i32 0, i32 9
  %le_next = getelementptr inbounds %struct.anon, ptr %next7, i32 0, i32 0
  %8 = load ptr, ptr %le_next, align 8
  store ptr %8, ptr %next, align 8
  br label %land.end

land.end:                                         ; preds = %land.rhs, %for.cond
  %9 = phi i1 [ false, %for.cond ], [ true, %land.rhs ]
  br i1 %9, label %for.body, label %for.end

for.body:                                         ; preds = %land.end
  %10 = load ptr, ptr %child, align 8
  %bs8 = getelementptr inbounds %struct.BdrvChild, ptr %10, i32 0, i32 0
  %11 = load ptr, ptr %bs8, align 8
  call void @bdrv_drain_assert_idle(ptr noundef %11)
  br label %for.inc

for.inc:                                          ; preds = %for.body
  %12 = load ptr, ptr %next, align 8
  store ptr %12, ptr %child, align 8
  br label %for.cond, !llvm.loop !15

for.end:                                          ; preds = %land.end
  call void @glib_autoptr_cleanup_GraphLockableMainloop(ptr noundef %graph_lockable_auto23)
  ret void
}