; Function Attrs: nounwind sspstrong uwtable
define internal fastcc void @bdrv_drain_assert_idle(ptr noundef readonly captures(none) %bs) unnamed_addr #0 {
entry:
  %call = tail call zeroext i1 @qemu_in_main_thread() #15
  br i1 %call, label %do.end, label %if.else

if.else:                                          ; preds = %entry
  tail call void @__assert_fail(ptr noundef nonnull @.str, ptr noundef nonnull @.str.1, i32 noundef 462, ptr noundef nonnull @__PRETTY_FUNCTION__.bdrv_drain_assert_idle) #16
  unreachable

do.end:                                           ; preds = %entry
  tail call void @bdrv_graph_rdlock_main_loop() #15
  %in_flight = getelementptr inbounds nuw i8, ptr %bs, i64 16972
  %0 = load atomic i32, ptr %in_flight monotonic, align 4
  %cmp = icmp eq i32 %0, 0
  br i1 %cmp, label %if.end6, label %if.else5

if.else5:                                         ; preds = %do.end
  tail call void @__assert_fail(ptr noundef nonnull @.str.43, ptr noundef nonnull @.str.1, i32 noundef 465, ptr noundef nonnull @__PRETTY_FUNCTION__.bdrv_drain_assert_idle) #16
  unreachable

if.end6:                                          ; preds = %do.end
  %children = getelementptr inbounds nuw i8, ptr %bs, i64 16824
  %1 = load ptr, ptr %children, align 8
  %tobool.not4 = icmp eq ptr %1, null
  br i1 %tobool.not4, label %glib_autoptr_cleanup_GraphLockableMainloop.exit, label %land.rhs

land.rhs:                                         ; preds = %if.end6, %land.rhs
  %child.05 = phi ptr [ %2, %land.rhs ], [ %1, %if.end6 ]
  %next7 = getelementptr inbounds nuw i8, ptr %child.05, i64 64
  %2 = load ptr, ptr %next7, align 8
  %3 = load ptr, ptr %child.05, align 8
  tail call fastcc void @bdrv_drain_assert_idle(ptr noundef %3)
  %tobool.not = icmp eq ptr %2, null
  br i1 %tobool.not, label %glib_autoptr_cleanup_GraphLockableMainloop.exit, label %land.rhs, !llvm.loop !16

glib_autoptr_cleanup_GraphLockableMainloop.exit:  ; preds = %land.rhs, %if.end6
  tail call void @bdrv_graph_rdunlock_main_loop() #15
  ret void
}